target datalayout = "e-m:e-p270:32:32-p271:32:32-p272:64:64-i64:64-i128:128-f80:128-n8:16:32:64-S128"
target triple = "x86_64-pc-linux-gnu"

%class.QString = type { %struct.QArrayDataPointer }
%struct.QArrayDataPointer = type { ptr, ptr, i64 }
%class.QVariant = type { %"struct.QVariant::Private" }
%"struct.QVariant::Private" = type { %union.anon, i64 }
%union.anon = type { ptr, [16 x i8] }
%class.QPaintDevice.base = type <{ ptr, i16 }>
%class.TCPStreamDialog = type { %class.GeometryStateDialog, ptr, ptr, %class.QMultiMap, double, i8, %class.QMap, double, i8, %struct.tcp_graph, ptr, %class.QString, ptr, ptr, ptr, ptr, ptr, ptr, ptr, ptr, ptr, ptr, ptr, ptr, ptr, ptr, %class.QRectF, i32, [4 x i8], %class.QTransform, i8, ptr, %class.QPoint, %class.QMenu, %"class.TCPStreamDialog::GraphUpdater", i32, i32, i32, double }
%class.GeometryStateDialog = type { %class.QDialog, %class.QString }
%class.QDialog = type { %class.QWidget }
%class.QWidget = type { %class.QObject, %class.QPaintDevice.base, ptr }
%class.QObject = type { ptr, %class.QScopedPointer }
%class.QScopedPointer = type { ptr }
%class.QMultiMap = type { %"class.QtPrivate::QExplicitlySharedDataPointerV2" }
%"class.QtPrivate::QExplicitlySharedDataPointerV2" = type { ptr }
%class.QMap = type { %"class.QtPrivate::QExplicitlySharedDataPointerV2.5" }
%"class.QtPrivate::QExplicitlySharedDataPointerV2.5" = type { ptr }
%struct.tcp_graph = type { i32, %struct._address, i16, %struct._address, i16, i32, ptr }
%struct._address = type { i32, i32, ptr, ptr }
%class.QRectF = type { double, double, double, double }
%class.QTransform = type <{ [3 x [3 x double]], i16, [6 x i8] }>
%class.QPoint = type { i32, i32 }
%class.QMenu = type { %class.QWidget }
%"class.TCPStreamDialog::GraphUpdater" = type <{ ptr, ptr, i8, [7 x i8] }>
%class.Ui_TCPStreamDialog = type { ptr, ptr, ptr, ptr, ptr, ptr, ptr, ptr, ptr, ptr, ptr, ptr, ptr, ptr, ptr, ptr, ptr, ptr, ptr, ptr, ptr, ptr, ptr, ptr, ptr, ptr, ptr, ptr, ptr, ptr, ptr, ptr, ptr, ptr, ptr, ptr, ptr, ptr, ptr, ptr, ptr, ptr, ptr, ptr, ptr, ptr, ptr, ptr, ptr, ptr, ptr, ptr, ptr, ptr, ptr, ptr, ptr }
%class.QFlag = type { i32 }
%class.QFlags.96 = type { i32 }

; Function Attrs: mustprogress nounwind uwtable
define linkonce_odr noundef i32 @_ZNK5QFlagcvjEv(ptr noundef nonnull align 4 dereferenceable(4) %0) #2 comdat align 2 {
  %2 = alloca ptr, align 8
  store ptr %0, ptr %2, align 8
  %3 = load ptr, ptr %2, align 8
  %4 = getelementptr inbounds %class.QFlag, ptr %3, i32 0, i32 0
  %5 = load i32, ptr %4, align 4
  ret i32 %5
}

; Function Attrs: mustprogress nounwind uwtable
define linkonce_odr void @_ZN6QFlagsIN2Qt9MatchFlagEEC2E5QFlag(ptr noundef nonnull align 4 dereferenceable(4) %0, i32 %1) unnamed_addr #2 comdat align 2 {
  %3 = alloca %class.QFlag, align 4
  %4 = alloca ptr, align 8
  %5 = getelementptr inbounds %class.QFlag, ptr %3, i32 0, i32 0
  store i32 %1, ptr %5, align 4
  store ptr %0, ptr %4, align 8
  %6 = load ptr, ptr %4, align 8
  %7 = getelementptr inbounds %class.QFlags.96, ptr %6, i32 0, i32 0
  %8 = call noundef i32 @_ZNK5QFlagcvjEv(ptr noundef nonnull align 4 dereferenceable(4) %3) #3
  store i32 %8, ptr %7, align 4
  ret void
}

; Function Attrs: mustprogress nounwind uwtable
define linkonce_odr void @_ZN5QFlagC2Ej(ptr noundef nonnull align 4 dereferenceable(4) %0, i32 noundef %1) unnamed_addr #2 comdat align 2 {
  %3 = alloca ptr, align 8
  %4 = alloca i32, align 4
  store ptr %0, ptr %3, align 8
  store i32 %1, ptr %4, align 4
  %5 = load ptr, ptr %3, align 8
  %6 = getelementptr inbounds %class.QFlag, ptr %5, i32 0, i32 0
  %7 = load i32, ptr %4, align 4
  store i32 %7, ptr %6, align 4
  ret void
}

; Function Attrs: mustprogress nounwind uwtable
define linkonce_odr i32 @_ZNK6QFlagsIN2Qt9MatchFlagEEorES1_(ptr noundef nonnull align 4 dereferenceable(4) %0, i32 noundef %1) #2 comdat align 2 {
  %3 = alloca %class.QFlags.96, align 4
  %4 = alloca ptr, align 8
  %5 = alloca i32, align 4
  %6 = alloca %class.QFlag, align 4
  store ptr %0, ptr %4, align 8
  store i32 %1, ptr %5, align 4
  %7 = load ptr, ptr %4, align 8
  %8 = getelementptr inbounds %class.QFlags.96, ptr %7, i32 0, i32 0
  %9 = load i32, ptr %8, align 4
  %10 = load i32, ptr %5, align 4
  %11 = or i32 %9, %10
  call void @_ZN5QFlagC2Ej(ptr noundef nonnull align 4 dereferenceable(4) %6, i32 noundef %11) #3
  %12 = getelementptr inbounds %class.QFlag, ptr %6, i32 0, i32 0
  %13 = load i32, ptr %12, align 4
  call void @_ZN6QFlagsIN2Qt9MatchFlagEEC2E5QFlag(ptr noundef nonnull align 4 dereferenceable(4) %3, i32 %13) #3
  %14 = getelementptr inbounds %class.QFlags.96, ptr %3, i32 0, i32 0
  %15 = load i32, ptr %14, align 4
  ret i32 %15
}

; Function Attrs: mustprogress nounwind uwtable
define linkonce_odr void @_ZN6QFlagsIN2Qt9MatchFlagEEC2ES1_(ptr noundef nonnull align 4 dereferenceable(4) %0, i32 noundef %1) unnamed_addr #2 comdat align 2 {
  %3 = alloca ptr, align 8
  %4 = alloca i32, align 4
  store ptr %0, ptr %3, align 8
  store i32 %1, ptr %4, align 4
  %5 = load ptr, ptr %3, align 8
  %6 = getelementptr inbounds %class.QFlags.96, ptr %5, i32 0, i32 0
  %7 = load i32, ptr %4, align 4
  store i32 %7, ptr %6, align 4
  ret void
}

; Function Attrs: mustprogress nounwind uwtable
define linkonce_odr i32 @_ZN2QtorENS_9MatchFlagES0_(i32 noundef %0, i32 noundef %1) #2 comdat {
  %3 = alloca %class.QFlags.96, align 4
  %4 = alloca i32, align 4
  %5 = alloca i32, align 4
  %6 = alloca %class.QFlags.96, align 4
  store i32 %0, ptr %4, align 4
  store i32 %1, ptr %5, align 4
  %7 = load i32, ptr %4, align 4
  call void @_ZN6QFlagsIN2Qt9MatchFlagEEC2ES1_(ptr noundef nonnull align 4 dereferenceable(4) %6, i32 noundef %7) #3
  %8 = load i32, ptr %5, align 4
  %9 = call i32 @_ZNK6QFlagsIN2Qt9MatchFlagEEorES1_(ptr noundef nonnull align 4 dereferenceable(4) %6, i32 noundef %8) #3
  %10 = getelementptr inbounds %class.QFlags.96, ptr %3, i32 0, i32 0
  store i32 %9, ptr %10, align 4
  %11 = getelementptr inbounds %class.QFlags.96, ptr %3, i32 0, i32 0
  %12 = load i32, ptr %11, align 4
  ret i32 %12
}

; Function Attrs: mustprogress uwtable
define void @_ZN15TCPStreamDialog32on_actionWindowScaling_triggeredEv(ptr noundef nonnull align 8 dereferenceable(584) %0) #1 align 2 personality ptr @__gxx_personality_v0 {
  %2 = alloca ptr, align 8
  %3 = alloca %class.QVariant, align 8
  %4 = alloca %class.QFlags.96, align 4
  %5 = alloca ptr, align 8
  %6 = alloca i32, align 4
  store ptr %0, ptr %2, align 8
  %7 = load ptr, ptr %2, align 8
  %8 = getelementptr inbounds %class.TCPStreamDialog, ptr %7, i32 0, i32 1
  %9 = load ptr, ptr %8, align 8
  %10 = getelementptr inbounds %class.Ui_TCPStreamDialog, ptr %9, i32 0, i32 33
  %11 = load ptr, ptr %10, align 8
  %12 = getelementptr inbounds %class.TCPStreamDialog, ptr %7, i32 0, i32 1
  %13 = load ptr, ptr %12, align 8
  %14 = getelementptr inbounds %class.Ui_TCPStreamDialog, ptr %13, i32 0, i32 33
  %15 = load ptr, ptr %14, align 8
  call void @_ZN8QVariantC1Ei(ptr noundef nonnull align 8 dereferenceable(32) %3, i32 noundef 4)
  %16 = call i32 @_ZN2QtorENS_9MatchFlagES0_(i32 noundef 0, i32 noundef 16) #3
  %17 = getelementptr inbounds %class.QFlags.96, ptr %4, i32 0, i32 0
  store i32 %16, ptr %17, align 4
  %18 = getelementptr inbounds %class.QFlags.96, ptr %4, i32 0, i32 0
  %19 = load i32, ptr %18, align 4
  %20 = invoke noundef i32 @_ZNK9QComboBox8findDataERK8QVarianti6QFlagsIN2Qt9MatchFlagEE(ptr noundef nonnull align 8 dereferenceable(40) %15, ptr noundef nonnull align 8 dereferenceable(32) %3, i32 noundef 256, i32 %19)
          to label %21 unwind label %23

21:                                               ; preds = %1
  invoke void @_ZN9QComboBox15setCurrentIndexEi(ptr noundef nonnull align 8 dereferenceable(40) %11, i32 noundef %20)
          to label %22 unwind label %23

22:                                               ; preds = %21
  call void @_ZN8QVariantD1Ev(ptr noundef nonnull align 8 dereferenceable(32) %3) #3
  ret void

23:                                               ; preds = %21, %1
  %24 = landingpad { ptr, i32 }
          cleanup
  %25 = extractvalue { ptr, i32 } %24, 0
  store ptr %25, ptr %5, align 8
  %26 = extractvalue { ptr, i32 } %24, 1
  store i32 %26, ptr %6, align 4
  call void @_ZN8QVariantD1Ev(ptr noundef nonnull align 8 dereferenceable(32) %3) #3
  br label %27

27:                                               ; preds = %23
  %28 = load ptr, ptr %5, align 8
  %29 = load i32, ptr %6, align 4
  %30 = insertvalue { ptr, i32 } poison, ptr %28, 0
  %31 = insertvalue { ptr, i32 } %30, i32 %29, 1
  resume { ptr, i32 } %31
}